target datalayout = "e-m:e-p270:32:32-p271:32:32-p272:64:64-i64:64-i128:128-f80:128-n8:16:32:64-S128"
target triple = "x86_64-pc-linux-gnu"

%struct.MoleculePatch = type { i32, %"class.std::__cxx11::basic_string", %"class.std::__cxx11::basic_string", %"class.std::vector", i32, i32, i32, %"struct.std::array", i8, i8, [3 x float] }
%"class.std::__cxx11::basic_string" = type { %"struct.std::__cxx11::basic_string<char>::_Alloc_hider", i64, %union.anon }
%"struct.std::__cxx11::basic_string<char>::_Alloc_hider" = type { ptr }
%union.anon = type { i64, [8 x i8] }
%"class.std::vector" = type { %"struct.std::_Vector_base" }
%"struct.std::_Vector_base" = type { %"struct.std::_Vector_base<t_atom, std::allocator<t_atom>>::_Vector_impl" }
%"struct.std::_Vector_base<t_atom, std::allocator<t_atom>>::_Vector_impl" = type { %"struct.std::_Vector_base<t_atom, std::allocator<t_atom>>::_Vector_impl_data" }
%"struct.std::_Vector_base<t_atom, std::allocator<t_atom>>::_Vector_impl_data" = type { ptr, ptr, ptr }
%"struct.std::array" = type { [4 x %"class.std::__cxx11::basic_string"] }

@.str = private unnamed_addr constant [9 x i8] c"%d\09%d\09%s\00", align 1
@.str.1 = private unnamed_addr constant [4 x i8] c"\09%s\00", align 1
@.str.2 = private unnamed_addr constant [2 x i8] c"\0A\00", align 1

; Function Attrs: noinline noreturn nounwind uwtable
define linkonce_odr hidden void @__clang_call_terminate(ptr noundef %0) #3 comdat {
  %2 = call ptr @__cxa_begin_catch(ptr %0) #17
  call void @_ZSt9terminatev() #18
  unreachable
}

; Function Attrs: mustprogress nounwind uwtable
define available_externally noundef ptr @_ZNKSt7__cxx1112basic_stringIcSt11char_traitsIcESaIcEE7_M_dataEv(ptr noundef nonnull align 8 dereferenceable(32) %0) #0 align 2 {
  %2 = alloca ptr, align 8
  store ptr %0, ptr %2, align 8, !tbaa !34
  %3 = load ptr, ptr %2, align 8
  %4 = getelementptr inbounds nuw %"class.std::__cxx11::basic_string", ptr %3, i32 0, i32 0
  %5 = getelementptr inbounds nuw %"struct.std::__cxx11::basic_string<char>::_Alloc_hider", ptr %4, i32 0, i32 0
  %6 = load ptr, ptr %5, align 8, !tbaa !36
  ret ptr %6
}

; Function Attrs: mustprogress nounwind uwtable
define linkonce_odr noundef nonnull align 8 dereferenceable(32) ptr @_ZNSt14__array_traitsINSt7__cxx1112basic_stringIcSt11char_traitsIcESaIcEEELm4EE6_S_refERA4_KS5_m(ptr noundef nonnull align 8 dereferenceable(128) %0, i64 noundef %1) #0 comdat align 2 {
  %3 = alloca ptr, align 8
  %4 = alloca i64, align 8
  store ptr %0, ptr %3, align 8, !tbaa !34
  store i64 %1, ptr %4, align 8, !tbaa !33
  %5 = load ptr, ptr %3, align 8, !tbaa !34
  %6 = load i64, ptr %4, align 8, !tbaa !33
  %7 = getelementptr inbounds nuw [4 x %"class.std::__cxx11::basic_string"], ptr %5, i64 0, i64 %6
  ret ptr %7
}

; Function Attrs: mustprogress nounwind uwtable
define available_externally noundef ptr @_ZNKSt7__cxx1112basic_stringIcSt11char_traitsIcESaIcEE5c_strEv(ptr noundef nonnull align 8 dereferenceable(32) %0) #0 align 2 personality ptr @__gxx_personality_v0 {
  %2 = alloca ptr, align 8
  store ptr %0, ptr %2, align 8, !tbaa !34
  %3 = load ptr, ptr %2, align 8
  %4 = invoke noundef ptr @_ZNKSt7__cxx1112basic_stringIcSt11char_traitsIcESaIcEE7_M_dataEv(ptr noundef nonnull align 8 dereferenceable(32) %3)
          to label %5 unwind label %6

5:                                                ; preds = %1
  ret ptr %4

6:                                                ; preds = %1
  %7 = landingpad { ptr, i32 }
          catch ptr null
  %8 = extractvalue { ptr, i32 } %7, 0
  call void @__clang_call_terminate(ptr %8) #18
  unreachable
}

; Function Attrs: mustprogress nounwind uwtable
define linkonce_odr noundef nonnull align 8 dereferenceable(32) ptr @_ZNKSt5arrayINSt7__cxx1112basic_stringIcSt11char_traitsIcESaIcEEELm4EEixEm(ptr noundef nonnull align 8 dereferenceable(128) %0, i64 noundef %1) #0 comdat align 2 {
  %3 = alloca ptr, align 8
  %4 = alloca i64, align 8
  store ptr %0, ptr %3, align 8, !tbaa !31
  store i64 %1, ptr %4, align 8, !tbaa !33
  %5 = load ptr, ptr %3, align 8
  %6 = getelementptr inbounds nuw %"struct.std::array", ptr %5, i32 0, i32 0
  %7 = load i64, ptr %4, align 8, !tbaa !33
  %8 = call noundef nonnull align 8 dereferenceable(32) ptr @_ZNSt14__array_traitsINSt7__cxx1112basic_stringIcSt11char_traitsIcESaIcEEELm4EE6_S_refERA4_KS5_m(ptr noundef nonnull align 8 dereferenceable(128) %6, i64 noundef %7) #17
  ret ptr %8
}

; Function Attrs: mustprogress nounwind uwtable
define void @_Z8print_abP8_IO_FILERK13MoleculePatchPKc(ptr noundef %0, ptr noundef nonnull align 8 dereferenceable(256) %1, ptr noundef %2) #0 {
  %4 = alloca ptr, align 8
  %5 = alloca ptr, align 8
  %6 = alloca ptr, align 8
  %7 = alloca i32, align 4
  store ptr %0, ptr %4, align 8, !tbaa !4
  store ptr %1, ptr %5, align 8, !tbaa !9
  store ptr %2, ptr %6, align 8, !tbaa !11
  %8 = load ptr, ptr %4, align 8, !tbaa !4
  %9 = load ptr, ptr %5, align 8, !tbaa !9
  %10 = getelementptr inbounds nuw %struct.MoleculePatch, ptr %9, i32 0, i32 0
  %11 = load i32, ptr %10, align 8, !tbaa !13
  %12 = load ptr, ptr %5, align 8, !tbaa !9
  %13 = getelementptr inbounds nuw %struct.MoleculePatch, ptr %12, i32 0, i32 5
  %14 = load i32, ptr %13, align 4, !tbaa !26
  %15 = load ptr, ptr %6, align 8, !tbaa !11
  %16 = call i32 (ptr, ptr, ...) @fprintf(ptr noundef %8, ptr noundef @.str, i32 noundef %11, i32 noundef %14, ptr noundef %15) #17
  call void @llvm.lifetime.start.p0(i64 4, ptr %7) #17
  store i32 0, ptr %7, align 4, !tbaa !27
  br label %17

17:                                               ; preds = %33, %3
  %18 = load i32, ptr %7, align 4, !tbaa !27
  %19 = load ptr, ptr %5, align 8, !tbaa !9
  %20 = getelementptr inbounds nuw %struct.MoleculePatch, ptr %19, i32 0, i32 6
  %21 = load i32, ptr %20, align 8, !tbaa !28
  %22 = icmp slt i32 %18, %21
  br i1 %22, label %24, label %23

23:                                               ; preds = %17
  call void @llvm.lifetime.end.p0(i64 4, ptr %7) #17
  br label %36

24:                                               ; preds = %17
  %25 = load ptr, ptr %4, align 8, !tbaa !4
  %26 = load ptr, ptr %5, align 8, !tbaa !9
  %27 = getelementptr inbounds nuw %struct.MoleculePatch, ptr %26, i32 0, i32 7
  %28 = load i32, ptr %7, align 4, !tbaa !27
  %29 = sext i32 %28 to i64
  %30 = call noundef nonnull align 8 dereferenceable(32) ptr @_ZNKSt5arrayINSt7__cxx1112basic_stringIcSt11char_traitsIcESaIcEEELm4EEixEm(ptr noundef nonnull align 8 dereferenceable(128) %27, i64 noundef %29) #17
  %31 = call noundef ptr @_ZNKSt7__cxx1112basic_stringIcSt11char_traitsIcESaIcEE5c_strEv(ptr noundef nonnull align 8 dereferenceable(32) %30) #17
  %32 = call i32 (ptr, ptr, ...) @fprintf(ptr noundef %25, ptr noundef @.str.1, ptr noundef %31) #17
  br label %33

33:                                               ; preds = %24
  %34 = load i32, ptr %7, align 4, !tbaa !27
  %35 = add nsw i32 %34, 1
  store i32 %35, ptr %7, align 4, !tbaa !27
  br label %17, !llvm.loop !29

36:                                               ; preds = %23
  %37 = load ptr, ptr %4, align 8, !tbaa !4
  %38 = call i32 (ptr, ptr, ...) @fprintf(ptr noundef %37, ptr noundef @.str.2) #17
  ret void
}