; Function Attrs: mustprogress nofree nounwind uwtable
define void @_Z8print_abP8_IO_FILERK13MoleculePatchPKc(ptr noundef captures(none) %0, ptr noundef nonnull readonly align 8 captures(none) dereferenceable(256) %1, ptr noundef %2) local_unnamed_addr #0 personality ptr @__gxx_personality_v0 {
  %4 = load i32, ptr %1, align 8, !tbaa !4
  %5 = getelementptr inbounds nuw i8, ptr %1, i64 100
  %6 = load i32, ptr %5, align 4, !tbaa !21
  %7 = tail call i32 (ptr, ptr, ...) @fprintf(ptr noundef %0, ptr noundef nonnull @.str, i32 noundef %4, i32 noundef %6, ptr noundef %2) #23
  %8 = getelementptr inbounds nuw i8, ptr %1, i64 104
  %9 = load i32, ptr %8, align 8, !tbaa !22
  %10 = icmp sgt i32 %9, 0
  br i1 %10, label %.lr.ph, label %._crit_edge

.lr.ph:                                           ; preds = %3
  %11 = getelementptr inbounds nuw i8, ptr %1, i64 112
  br label %12

._crit_edge:                                      ; preds = %12, %3
  %fputc = tail call i32 @fputc(i32 10, ptr %0)
  ret void

12:                                               ; preds = %.lr.ph, %12
  %indvars.iv = phi i64 [ 0, %.lr.ph ], [ %indvars.iv.next, %12 ]
  %13 = getelementptr inbounds nuw [4 x %"class.std::__cxx11::basic_string"], ptr %11, i64 0, i64 %indvars.iv
  %14 = load ptr, ptr %13, align 8, !tbaa !23
  %15 = tail call i32 (ptr, ptr, ...) @fprintf(ptr noundef %0, ptr noundef nonnull @.str.1, ptr noundef %14) #23
  %indvars.iv.next = add nuw nsw i64 %indvars.iv, 1
  %16 = load i32, ptr %8, align 8, !tbaa !22
  %17 = sext i32 %16 to i64
  %18 = icmp slt i64 %indvars.iv.next, %17
  br i1 %18, label %12, label %._crit_edge, !llvm.loop !24
}